target datalayout = "e-m:e-p270:32:32-p271:32:32-p272:64:64-i64:64-i128:128-f80:128-n8:16:32:64-S128"
target triple = "x86_64-pc-linux-gnu"

%struct.AVFilterContext = type { ptr, ptr, ptr, ptr, ptr, i32, ptr, ptr, i32, ptr, ptr, i32, i32, ptr, ptr, ptr, ptr, i32, ptr, i32, i32 }
%struct.ChorusContext = type { ptr, float, float, ptr, ptr, ptr, ptr, ptr, ptr, ptr, ptr, ptr, ptr, ptr, ptr, ptr, i32, i32, i32, i32, i32, i64 }
%struct.AVRational = type { i32, i32 }
%struct.AVFilterLink = type { ptr, ptr, ptr, ptr, i32, i32, i32, i32, %struct.AVRational, i32, i32, i32, %struct.AVChannelLayout, %struct.AVRational, ptr, i32, %struct.AVFilterFormatsConfig, %struct.AVFilterFormatsConfig }
%struct.AVChannelLayout = type { i32, i32, %union.anon.1, ptr }
%union.anon.1 = type { i64 }
%struct.AVFilterFormatsConfig = type { ptr, ptr, ptr, ptr, ptr }
%struct.AVFrame = type { [8 x ptr], [8 x i32], ptr, i32, i32, i32, i32, i32, %struct.AVRational, i64, i64, %struct.AVRational, i32, ptr, i32, i32, [8 x ptr], ptr, i32, ptr, i32, i32, i32, i32, i32, i32, i32, i64, ptr, i32, ptr, ptr, i64, i64, i64, i64, ptr, %struct.AVChannelLayout, i64 }

; Function Attrs: nounwind uwtable
define internal i32 @request_frame(ptr noundef %0) #1 {
  %2 = alloca i32, align 4
  %3 = alloca ptr, align 8
  %4 = alloca ptr, align 8
  %5 = alloca ptr, align 8
  %6 = alloca i32, align 4
  %7 = alloca i32, align 4
  %8 = alloca ptr, align 8
  %9 = alloca i32, align 4
  %10 = alloca %struct.AVRational, align 4
  store ptr %0, ptr %3, align 8, !tbaa !50
  call void @llvm.lifetime.start.p0(i64 8, ptr %4) #7
  %11 = load ptr, ptr %3, align 8, !tbaa !50
  %12 = getelementptr inbounds nuw %struct.AVFilterLink, ptr %11, i32 0, i32 0
  %13 = load ptr, ptr %12, align 8, !tbaa !84
  store ptr %13, ptr %4, align 8, !tbaa !4
  call void @llvm.lifetime.start.p0(i64 8, ptr %5) #7
  %14 = load ptr, ptr %4, align 8, !tbaa !4
  %15 = getelementptr inbounds nuw %struct.AVFilterContext, ptr %14, i32 0, i32 9
  %16 = load ptr, ptr %15, align 8, !tbaa !9
  store ptr %16, ptr %5, align 8, !tbaa !22
  call void @llvm.lifetime.start.p0(i64 4, ptr %6) #7
  %17 = load ptr, ptr %4, align 8, !tbaa !4
  %18 = getelementptr inbounds nuw %struct.AVFilterContext, ptr %17, i32 0, i32 4
  %19 = load ptr, ptr %18, align 8, !tbaa !85
  %20 = getelementptr inbounds ptr, ptr %19, i64 0
  %21 = load ptr, ptr %20, align 8, !tbaa !50
  %22 = call i32 @ff_request_frame(ptr noundef %21)
  store i32 %22, ptr %6, align 4, !tbaa !36
  %23 = load i32, ptr %6, align 4, !tbaa !36
  %24 = icmp eq i32 %23, -541478725
  br i1 %24, label %25, label %110

25:                                               ; preds = %1
  %26 = load ptr, ptr %4, align 8, !tbaa !4
  %27 = getelementptr inbounds nuw %struct.AVFilterContext, ptr %26, i32 0, i32 17
  %28 = load i32, ptr %27, align 8, !tbaa !86
  %29 = icmp ne i32 %28, 0
  br i1 %29, label %110, label %30

30:                                               ; preds = %25
  %31 = load ptr, ptr %5, align 8, !tbaa !22
  %32 = getelementptr inbounds nuw %struct.ChorusContext, ptr %31, i32 0, i32 20
  %33 = load i32, ptr %32, align 8, !tbaa !87
  %34 = icmp ne i32 %33, 0
  br i1 %34, label %35, label %110

35:                                               ; preds = %30
  call void @llvm.lifetime.start.p0(i64 4, ptr %7) #7
  %36 = load ptr, ptr %5, align 8, !tbaa !22
  %37 = getelementptr inbounds nuw %struct.ChorusContext, ptr %36, i32 0, i32 20
  %38 = load i32, ptr %37, align 8, !tbaa !87
  %39 = icmp sgt i32 %38, 2048
  br i1 %39, label %40, label %41

40:                                               ; preds = %35
  br label %45

41:                                               ; preds = %35
  %42 = load ptr, ptr %5, align 8, !tbaa !22
  %43 = getelementptr inbounds nuw %struct.ChorusContext, ptr %42, i32 0, i32 20
  %44 = load i32, ptr %43, align 8, !tbaa !87
  br label %45

45:                                               ; preds = %41, %40
  %46 = phi i32 [ 2048, %40 ], [ %44, %41 ]
  store i32 %46, ptr %7, align 4, !tbaa !36
  call void @llvm.lifetime.start.p0(i64 8, ptr %8) #7
  %47 = load ptr, ptr %3, align 8, !tbaa !50
  %48 = load i32, ptr %7, align 4, !tbaa !36
  %49 = call ptr @ff_get_audio_buffer(ptr noundef %47, i32 noundef %48)
  store ptr %49, ptr %8, align 8, !tbaa !52
  %50 = load ptr, ptr %8, align 8, !tbaa !52
  %51 = icmp ne ptr %50, null
  br i1 %51, label %53, label %52

52:                                               ; preds = %45
  store i32 -12, ptr %2, align 4
  store i32 1, ptr %9, align 4
  br label %107

53:                                               ; preds = %45
  %54 = load i32, ptr %7, align 4, !tbaa !36
  %55 = load ptr, ptr %5, align 8, !tbaa !22
  %56 = getelementptr inbounds nuw %struct.ChorusContext, ptr %55, i32 0, i32 20
  %57 = load i32, ptr %56, align 8, !tbaa !87
  %58 = sub nsw i32 %57, %54
  store i32 %58, ptr %56, align 8, !tbaa !87
  %59 = load ptr, ptr %8, align 8, !tbaa !52
  %60 = getelementptr inbounds nuw %struct.AVFrame, ptr %59, i32 0, i32 2
  %61 = load ptr, ptr %60, align 8, !tbaa !68
  %62 = load ptr, ptr %8, align 8, !tbaa !52
  %63 = getelementptr inbounds nuw %struct.AVFrame, ptr %62, i32 0, i32 5
  %64 = load i32, ptr %63, align 8, !tbaa !63
  %65 = load ptr, ptr %3, align 8, !tbaa !50
  %66 = getelementptr inbounds nuw %struct.AVFilterLink, ptr %65, i32 0, i32 12
  %67 = getelementptr inbounds nuw %struct.AVChannelLayout, ptr %66, i32 0, i32 1
  %68 = load i32, ptr %67, align 4, !tbaa !67
  %69 = load ptr, ptr %8, align 8, !tbaa !52
  %70 = getelementptr inbounds nuw %struct.AVFrame, ptr %69, i32 0, i32 6
  %71 = load i32, ptr %70, align 4, !tbaa !88
  %72 = call i32 @av_samples_set_silence(ptr noundef %61, i32 noundef 0, i32 noundef %64, i32 noundef %68, i32 noundef %71)
  %73 = load ptr, ptr %5, align 8, !tbaa !22
  %74 = getelementptr inbounds nuw %struct.ChorusContext, ptr %73, i32 0, i32 21
  %75 = load i64, ptr %74, align 8, !tbaa !43
  %76 = load ptr, ptr %8, align 8, !tbaa !52
  %77 = getelementptr inbounds nuw %struct.AVFrame, ptr %76, i32 0, i32 9
  store i64 %75, ptr %77, align 8, !tbaa !80
  %78 = load ptr, ptr %5, align 8, !tbaa !22
  %79 = getelementptr inbounds nuw %struct.ChorusContext, ptr %78, i32 0, i32 21
  %80 = load i64, ptr %79, align 8, !tbaa !43
  %81 = icmp ne i64 %80, -9223372036854775808
  br i1 %81, label %82, label %99

82:                                               ; preds = %53
  %83 = load i32, ptr %7, align 4, !tbaa !36
  %84 = sext i32 %83 to i64
  %85 = getelementptr inbounds nuw %struct.AVRational, ptr %10, i32 0, i32 0
  store i32 1, ptr %85, align 4, !tbaa !81
  %86 = getelementptr inbounds nuw %struct.AVRational, ptr %10, i32 0, i32 1
  %87 = load ptr, ptr %3, align 8, !tbaa !50
  %88 = getelementptr inbounds nuw %struct.AVFilterLink, ptr %87, i32 0, i32 11
  %89 = load i32, ptr %88, align 8, !tbaa !82
  store i32 %89, ptr %86, align 4, !tbaa !83
  %90 = load ptr, ptr %3, align 8, !tbaa !50
  %91 = getelementptr inbounds nuw %struct.AVFilterLink, ptr %90, i32 0, i32 13
  %92 = load i64, ptr %10, align 4
  %93 = load i64, ptr %91, align 8
  %94 = call i64 @av_rescale_q(i64 noundef %84, i64 %92, i64 %93) #8
  %95 = load ptr, ptr %5, align 8, !tbaa !22
  %96 = getelementptr inbounds nuw %struct.ChorusContext, ptr %95, i32 0, i32 21
  %97 = load i64, ptr %96, align 8, !tbaa !43
  %98 = add nsw i64 %97, %94
  store i64 %98, ptr %96, align 8, !tbaa !43
  br label %99

99:                                               ; preds = %82, %53
  %100 = load ptr, ptr %4, align 8, !tbaa !4
  %101 = getelementptr inbounds nuw %struct.AVFilterContext, ptr %100, i32 0, i32 4
  %102 = load ptr, ptr %101, align 8, !tbaa !85
  %103 = getelementptr inbounds ptr, ptr %102, i64 0
  %104 = load ptr, ptr %103, align 8, !tbaa !50
  %105 = load ptr, ptr %8, align 8, !tbaa !52
  %106 = call i32 @filter_frame(ptr noundef %104, ptr noundef %105)
  store i32 %106, ptr %6, align 4, !tbaa !36
  store i32 0, ptr %9, align 4
  br label %107

107:                                              ; preds = %99, %52
  call void @llvm.lifetime.end.p0(i64 8, ptr %8) #7
  call void @llvm.lifetime.end.p0(i64 4, ptr %7) #7
  %108 = load i32, ptr %9, align 4
  switch i32 %108, label %112 [
    i32 0, label %109
  ]

109:                                              ; preds = %107
  br label %110

110:                                              ; preds = %109, %30, %25, %1
  %111 = load i32, ptr %6, align 4, !tbaa !36
  store i32 %111, ptr %2, align 4
  store i32 1, ptr %9, align 4
  br label %112

112:                                              ; preds = %110, %107
  call void @llvm.lifetime.end.p0(i64 4, ptr %6) #7
  call void @llvm.lifetime.end.p0(i64 8, ptr %5) #7
  call void @llvm.lifetime.end.p0(i64 8, ptr %4) #7
  %113 = load i32, ptr %2, align 4
  ret i32 %113
}