; Function Attrs: nounwind uwtable
define internal i32 @request_frame(ptr noundef %0) #1 {
  %2 = load ptr, ptr %0, align 8, !tbaa !81
  %3 = getelementptr inbounds nuw i8, ptr %2, i64 72
  %4 = load ptr, ptr %3, align 8, !tbaa !4
  %5 = getelementptr inbounds nuw i8, ptr %2, i64 32
  %6 = load ptr, ptr %5, align 8, !tbaa !82
  %7 = load ptr, ptr %6, align 8, !tbaa !60
  %8 = tail call i32 @ff_request_frame(ptr noundef %7) #8
  %9 = icmp eq i32 %8, -541478725
  br i1 %9, label %10, label %45

10:                                               ; preds = %1
  %11 = getelementptr inbounds nuw i8, ptr %2, i64 128
  %12 = load i32, ptr %11, align 8, !tbaa !83
  %.not = icmp eq i32 %12, 0
  br i1 %.not, label %13, label %45

13:                                               ; preds = %10
  %14 = getelementptr inbounds nuw i8, ptr %4, i64 136
  %15 = load i32, ptr %14, align 8, !tbaa !84
  %.not35 = icmp eq i32 %15, 0
  br i1 %.not35, label %45, label %16

16:                                               ; preds = %13
  %spec.select = tail call i32 @llvm.smin.i32(i32 %15, i32 2048)
  %17 = tail call ptr @ff_get_audio_buffer(ptr noundef nonnull %0, i32 noundef %spec.select) #8
  %.not36.not = icmp eq ptr %17, null
  br i1 %.not36.not, label %45, label %18

18:                                               ; preds = %16
  %19 = load i32, ptr %14, align 8, !tbaa !84
  %20 = sub nsw i32 %19, %spec.select
  store i32 %20, ptr %14, align 8, !tbaa !84
  %21 = getelementptr inbounds nuw i8, ptr %17, i64 96
  %22 = load ptr, ptr %21, align 8, !tbaa !67
  %23 = getelementptr inbounds nuw i8, ptr %17, i64 112
  %24 = load i32, ptr %23, align 8, !tbaa !62
  %25 = getelementptr inbounds nuw i8, ptr %0, i64 76
  %26 = load i32, ptr %25, align 4, !tbaa !66
  %27 = getelementptr inbounds nuw i8, ptr %17, i64 116
  %28 = load i32, ptr %27, align 4, !tbaa !85
  %29 = tail call i32 @av_samples_set_silence(ptr noundef %22, i32 noundef 0, i32 noundef %24, i32 noundef %26, i32 noundef %28) #8
  %30 = getelementptr inbounds nuw i8, ptr %4, i64 144
  %31 = load i64, ptr %30, align 8, !tbaa !42
  %32 = getelementptr inbounds nuw i8, ptr %17, i64 136
  store i64 %31, ptr %32, align 8, !tbaa !79
  %.not37 = icmp eq i64 %31, -9223372036854775808
  br i1 %.not37, label %41, label %33

33:                                               ; preds = %18
  %34 = sext i32 %spec.select to i64
  %35 = getelementptr inbounds nuw i8, ptr %0, i64 64
  %36 = load i32, ptr %35, align 8, !tbaa !80
  %37 = getelementptr inbounds nuw i8, ptr %0, i64 96
  %.sroa.2.0.insert.ext = zext i32 %36 to i64
  %.sroa.2.0.insert.shift = shl nuw i64 %.sroa.2.0.insert.ext, 32
  %.sroa.0.0.insert.insert = or disjoint i64 %.sroa.2.0.insert.shift, 1
  %38 = load i64, ptr %37, align 8
  %39 = tail call i64 @av_rescale_q(i64 noundef %34, i64 %.sroa.0.0.insert.insert, i64 %38) #9
  %40 = add nsw i64 %39, %31
  store i64 %40, ptr %30, align 8, !tbaa !42
  br label %41

41:                                               ; preds = %33, %18
  %42 = load ptr, ptr %5, align 8, !tbaa !82
  %43 = load ptr, ptr %42, align 8, !tbaa !60
  %44 = tail call i32 @filter_frame(ptr noundef %43, ptr noundef nonnull %17)
  br label %45

45:                                               ; preds = %41, %16, %1, %10, %13
  %.1 = phi i32 [ -541478725, %10 ], [ -541478725, %13 ], [ %8, %1 ], [ %44, %41 ], [ -12, %16 ]
  ret i32 %.1
}